; Function Attrs: alwaysinline norecurse nounwind uwtable
define internal void @_ZNK8LightGBM24CrossEntropyLambdaMetric4EvalEPKdPKNS_17ObjectiveFunctionE.omp_outlined.96(ptr noalias noundef readonly captures(none) %0, ptr noalias readnone captures(none) %1, ptr noundef readonly captures(none) %2, ptr noundef nonnull readonly align 8 captures(none) dereferenceable(8) %3, ptr noundef nonnull readonly align 8 captures(none) dereferenceable(8) %4, ptr noundef nonnull align 8 captures(none) dereferenceable(8) %5) #15 personality ptr @__gxx_personality_v0 {
  %7 = alloca i32, align 4
  %8 = alloca i32, align 4
  %9 = alloca i32, align 4
  %10 = alloca i32, align 4
  %11 = alloca double, align 8
  %12 = alloca double, align 8
  %13 = alloca [1 x ptr], align 8
  %14 = getelementptr inbounds nuw i8, ptr %2, i64 8
  %15 = load i32, ptr %14, align 8, !tbaa !523
  %16 = icmp sgt i32 %15, 0
  br i1 %16, label %17, label %71

17:                                               ; preds = %6
  %18 = add nsw i32 %15, -1
  call void @llvm.lifetime.start.p0(i64 4, ptr nonnull %7) #16
  store i32 0, ptr %7, align 4, !tbaa !127
  call void @llvm.lifetime.start.p0(i64 4, ptr nonnull %8) #16
  store i32 %18, ptr %8, align 4, !tbaa !127
  call void @llvm.lifetime.start.p0(i64 4, ptr nonnull %9) #16
  store i32 1, ptr %9, align 4, !tbaa !127
  call void @llvm.lifetime.start.p0(i64 4, ptr nonnull %10) #16
  store i32 0, ptr %10, align 4, !tbaa !127
  call void @llvm.lifetime.start.p0(i64 8, ptr nonnull %11) #16
  store double 0.000000e+00, ptr %11, align 8, !tbaa !84
  %19 = load i32, ptr %0, align 4, !tbaa !127
  call void @__kmpc_for_static_init_4(ptr nonnull @1, i32 %19, i32 34, ptr nonnull %10, ptr nonnull %7, ptr nonnull %8, ptr nonnull %9, i32 1, i32 1)
  %20 = load i32, ptr %8, align 4, !tbaa !127
  %21 = call i32 @llvm.smin.i32(i32 %20, i32 %18)
  store i32 %21, ptr %8, align 4, !tbaa !127
  %22 = load i32, ptr %7, align 4, !tbaa !127
  %.not16 = icmp sgt i32 %22, %21
  br i1 %.not16, label %._crit_edge, label %.lr.ph

.lr.ph:                                           ; preds = %17
  %23 = getelementptr inbounds nuw i8, ptr %2, i64 16
  %24 = sext i32 %22 to i64
  br label %25

25:                                               ; preds = %.lr.ph, %_ZN8LightGBML14XentLambdaLossEffd.exit
  %26 = phi double [ 0.000000e+00, %.lr.ph ], [ %59, %_ZN8LightGBML14XentLambdaLossEffd.exit ]
  %indvars.iv = phi i64 [ %24, %.lr.ph ], [ %indvars.iv.next, %_ZN8LightGBML14XentLambdaLossEffd.exit ]
  call void @llvm.lifetime.start.p0(i64 8, ptr nonnull %12) #16
  store double 0.000000e+00, ptr %12, align 8, !tbaa !84
  %27 = load ptr, ptr %3, align 8, !tbaa !82
  %28 = load ptr, ptr %4, align 8, !tbaa !81
  %29 = getelementptr inbounds double, ptr %28, i64 %indvars.iv
  %30 = load ptr, ptr %27, align 8, !tbaa !15
  %31 = getelementptr inbounds nuw i8, ptr %30, i64 136
  %32 = load ptr, ptr %31, align 8
  invoke void %32(ptr noundef nonnull align 8 dereferenceable(8) %27, ptr noundef %29, ptr noundef nonnull %12)
          to label %33 unwind label %72

33:                                               ; preds = %25
  %34 = load ptr, ptr %23, align 8, !tbaa !525
  %35 = getelementptr inbounds float, ptr %34, i64 %indvars.iv
  %36 = load float, ptr %35, align 4, !tbaa !78
  %37 = load double, ptr %12, align 8, !tbaa !84
  %38 = fneg double %37
  %39 = call double @exp(double noundef %38) #16, !tbaa !127
  %40 = fsub double 1.000000e+00, %39
  %41 = fpext float %36 to double
  %42 = fcmp ogt double %40, 0x3D719799812DEA11
  br i1 %42, label %43, label %46

43:                                               ; preds = %33
  %44 = call double @llvm.log.f64(double %40), !tbaa !127
  %45 = fmul double %44, %41
  br label %48

46:                                               ; preds = %33
  %47 = fmul double %41, 0xC03BA18A998FFFA0
  br label %48

48:                                               ; preds = %46, %43
  %.012.i.i = phi double [ %45, %43 ], [ %47, %46 ]
  %49 = fsub float 1.000000e+00, %36
  %50 = fpext float %49 to double
  %51 = fsub double 1.000000e+00, %40
  %52 = fcmp ogt double %51, 0x3D719799812DEA11
  br i1 %52, label %53, label %56

53:                                               ; preds = %48
  %54 = call double @llvm.log.f64(double %51), !tbaa !127
  %55 = fmul double %54, %50
  br label %_ZN8LightGBML14XentLambdaLossEffd.exit

56:                                               ; preds = %48
  %57 = fmul double %50, 0xC03BA18A998FFFA0
  br label %_ZN8LightGBML14XentLambdaLossEffd.exit

_ZN8LightGBML14XentLambdaLossEffd.exit:           ; preds = %53, %56
  %.0.i.i = phi double [ %55, %53 ], [ %57, %56 ]
  %58 = fadd double %.012.i.i, %.0.i.i
  %59 = fsub double %26, %58
  store double %59, ptr %11, align 8, !tbaa !84
  call void @llvm.lifetime.end.p0(i64 8, ptr nonnull %12) #16
  %indvars.iv.next = add nsw i64 %indvars.iv, 1
  %60 = load i32, ptr %8, align 4, !tbaa !127
  %61 = sext i32 %60 to i64
  %.not.not = icmp slt i64 %indvars.iv, %61
  br i1 %.not.not, label %25, label %._crit_edge

._crit_edge:                                      ; preds = %_ZN8LightGBML14XentLambdaLossEffd.exit, %17
  call void @__kmpc_for_static_fini(ptr nonnull @1, i32 %19)
  store ptr %11, ptr %13, align 8
  %62 = call i32 @__kmpc_reduce_nowait(ptr nonnull @2, i32 %19, i32 1, i64 8, ptr nonnull %13, ptr nonnull @_ZNK8LightGBM24CrossEntropyLambdaMetric4EvalEPKdPKNS_17ObjectiveFunctionE.omp_outlined.96.omp.reduction.reduction_func, ptr nonnull @.gomp_critical_user_.reduction.var)
  switch i32 %62, label %70 [
    i32 1, label %63
    i32 2, label %67
  ]

63:                                               ; preds = %._crit_edge
  %64 = load double, ptr %5, align 8, !tbaa !84
  %65 = load double, ptr %11, align 8, !tbaa !84
  %66 = fadd double %64, %65
  store double %66, ptr %5, align 8, !tbaa !84
  call void @__kmpc_end_reduce_nowait(ptr nonnull @2, i32 %19, ptr nonnull @.gomp_critical_user_.reduction.var)
  br label %70

67:                                               ; preds = %._crit_edge
  %68 = load double, ptr %11, align 8, !tbaa !84
  %69 = atomicrmw fadd ptr %5, double %68 monotonic, align 8
  br label %70

70:                                               ; preds = %67, %63, %._crit_edge
  call void @llvm.lifetime.end.p0(i64 8, ptr nonnull %11) #16
  call void @llvm.lifetime.end.p0(i64 4, ptr nonnull %10) #16
  call void @llvm.lifetime.end.p0(i64 4, ptr nonnull %9) #16
  call void @llvm.lifetime.end.p0(i64 4, ptr nonnull %8) #16
  call void @llvm.lifetime.end.p0(i64 4, ptr nonnull %7) #16
  br label %71

71:                                               ; preds = %70, %6
  ret void

72:                                               ; preds = %25
  %73 = landingpad { ptr, i32 }
          catch ptr null
  %74 = extractvalue { ptr, i32 } %73, 0
  call void @__clang_call_terminate(ptr %74) #35
  unreachable
}